; Function Attrs: mustprogress nofree norecurse nosync nounwind willreturn memory(argmem: readwrite) uwtable
define void @_ZN5ZXing7ContentC2EONS_9ByteArrayENS_19SymbologyIdentifierE(ptr noundef nonnull writeonly align 8 captures(none) dereferenceable(54) initializes((0, 54)) %0, ptr noundef nonnull align 8 captures(none) dereferenceable(24) %1, i32 %2) unnamed_addr #4 align 2 {
  %4 = load ptr, ptr %1, align 8, !tbaa !37
  store ptr %4, ptr %0, align 8, !tbaa !37
  %5 = getelementptr inbounds nuw i8, ptr %0, i64 8
  %6 = getelementptr inbounds nuw i8, ptr %1, i64 8
  %7 = load ptr, ptr %6, align 8, !tbaa !36
  store ptr %7, ptr %5, align 8, !tbaa !36
  %8 = getelementptr inbounds nuw i8, ptr %0, i64 16
  %9 = getelementptr inbounds nuw i8, ptr %1, i64 16
  %10 = load ptr, ptr %9, align 8, !tbaa !39
  store ptr %10, ptr %8, align 8, !tbaa !39
  tail call void @llvm.memset.p0.i64(ptr noundef nonnull align 8 dereferenceable(24) %1, i8 0, i64 24, i1 false)
  %11 = getelementptr inbounds nuw i8, ptr %0, i64 24
  tail call void @llvm.memset.p0.i64(ptr noundef nonnull align 8 dereferenceable(24) %11, i8 0, i64 24, i1 false)
  %12 = getelementptr inbounds nuw i8, ptr %0, i64 48
  store i32 %2, ptr %12, align 8
  %13 = getelementptr inbounds nuw i8, ptr %0, i64 52
  store i8 0, ptr %13, align 4, !tbaa !40
  %14 = getelementptr inbounds nuw i8, ptr %0, i64 53
  store i8 0, ptr %14, align 1, !tbaa !16
  ret void
}